target datalayout = "e-m:e-p270:32:32-p271:32:32-p272:64:64-i64:64-i128:128-f80:128-n8:16:32:64-S128"
target triple = "x86_64-pc-linux-gnu"

%struct.asn1_string_st = type { i32, i32, ptr, i64 }
%struct.ossl_issuer_serial_st = type { ptr, %struct.asn1_string_st, ptr }
%struct.GENERAL_NAME_st = type { i32, %union.anon.0 }
%union.anon.0 = type { ptr }

; Function Attrs: inlinehint nounwind uwtable
define internal ptr @ossl_check_const_GENERAL_NAME_sk_type(ptr noundef %0) #3 {
  %2 = alloca ptr, align 8
  store ptr %0, ptr %2, align 8, !tbaa !44
  %3 = load ptr, ptr %2, align 8, !tbaa !44
  ret ptr %3
}

; Function Attrs: nounwind uwtable
define internal ptr @get_dirName(ptr noundef %0) #0 {
  %2 = alloca ptr, align 8
  %3 = alloca ptr, align 8
  %4 = alloca ptr, align 8
  %5 = alloca i32, align 4
  store ptr %0, ptr %3, align 8, !tbaa !44
  call void @llvm.lifetime.start.p0(i64 8, ptr %4) #5
  %6 = load ptr, ptr %3, align 8, !tbaa !44
  %7 = call ptr @ossl_check_const_GENERAL_NAME_sk_type(ptr noundef %6)
  %8 = call i32 @OPENSSL_sk_num(ptr noundef %7)
  %9 = icmp ne i32 %8, 1
  br i1 %9, label %10, label %11

10:                                               ; preds = %1
  store ptr null, ptr %2, align 8
  store i32 1, ptr %5, align 4
  br label %24

11:                                               ; preds = %1
  %12 = load ptr, ptr %3, align 8, !tbaa !44
  %13 = call ptr @ossl_check_const_GENERAL_NAME_sk_type(ptr noundef %12)
  %14 = call ptr @OPENSSL_sk_value(ptr noundef %13, i32 noundef 0)
  store ptr %14, ptr %4, align 8, !tbaa !45
  %15 = load ptr, ptr %4, align 8, !tbaa !45
  %16 = getelementptr inbounds nuw %struct.GENERAL_NAME_st, ptr %15, i32 0, i32 0
  %17 = load i32, ptr %16, align 8, !tbaa !47
  %18 = icmp ne i32 %17, 4
  br i1 %18, label %19, label %20

19:                                               ; preds = %11
  store ptr null, ptr %2, align 8
  store i32 1, ptr %5, align 4
  br label %24

20:                                               ; preds = %11
  %21 = load ptr, ptr %4, align 8, !tbaa !45
  %22 = getelementptr inbounds nuw %struct.GENERAL_NAME_st, ptr %21, i32 0, i32 1
  %23 = load ptr, ptr %22, align 8, !tbaa !49
  store ptr %23, ptr %2, align 8
  store i32 1, ptr %5, align 4
  br label %24

24:                                               ; preds = %20, %19, %10
  call void @llvm.lifetime.end.p0(i64 8, ptr %4) #5
  %25 = load ptr, ptr %2, align 8
  ret ptr %25
}

; Function Attrs: nounwind uwtable
define ptr @OSSL_ISSUER_SERIAL_get0_issuer(ptr noundef %0) #0 {
  %2 = alloca ptr, align 8
  store ptr %0, ptr %2, align 8, !tbaa !16
  %3 = load ptr, ptr %2, align 8, !tbaa !16
  %4 = getelementptr inbounds nuw %struct.ossl_issuer_serial_st, ptr %3, i32 0, i32 0
  %5 = load ptr, ptr %4, align 8, !tbaa !39
  %6 = call ptr @get_dirName(ptr noundef %5)
  ret ptr %6
}