; Function Attrs: nounwind uwtable
define ptr @OSSL_ISSUER_SERIAL_get0_issuer(ptr noundef readonly captures(none) %0) local_unnamed_addr #1 {
  %2 = load ptr, ptr %0, align 8, !tbaa !12
  %3 = tail call i32 @OPENSSL_sk_num(ptr noundef %2) #8
  %.not.i = icmp eq i32 %3, 1
  br i1 %.not.i, label %4, label %get_dirName.exit

4:                                                ; preds = %1
  %5 = tail call ptr @OPENSSL_sk_value(ptr noundef %2, i32 noundef 0) #8
  %6 = load i32, ptr %5, align 8, !tbaa !18
  %.not5.i = icmp eq i32 %6, 4
  br i1 %.not5.i, label %7, label %get_dirName.exit

7:                                                ; preds = %4
  %8 = getelementptr inbounds nuw i8, ptr %5, i64 8
  %9 = load ptr, ptr %8, align 8, !tbaa !20
  br label %get_dirName.exit

get_dirName.exit:                                 ; preds = %1, %4, %7
  %.0.i = phi ptr [ %9, %7 ], [ null, %1 ], [ null, %4 ]
  ret ptr %.0.i
}